; Function Attrs: nounwind uwtable
define noalias nonnull ptr @l_Lean_Meta_Grind_Arith_Cutsat_isApprox(i8 noundef zeroext %0, ptr noundef readnone captures(none) %1, ptr noundef readnone captures(none) %2, ptr noundef readnone captures(none) %3, ptr noundef readnone captures(none) %4, ptr noundef readnone captures(none) %5, ptr noundef readnone captures(none) %6, ptr noundef readnone captures(none) %7, ptr noundef readnone captures(none) %8, ptr noundef readnone captures(none) %9, ptr noundef %10) local_unnamed_addr #1 {
  tail call void @lean_inc_heartbeat() #6
  %12 = tail call noalias ptr @mi_malloc_small(i64 noundef 24) #6
  %13 = icmp eq ptr %12, null
  br i1 %13, label %14, label %lean_alloc_ctor.exit

14:                                               ; preds = %11
  tail call void @lean_internal_panic_out_of_memory() #7
  unreachable

lean_alloc_ctor.exit:                             ; preds = %11
  %.not = icmp eq i8 %0, 0
  %15 = select i1 %.not, ptr inttoptr (i64 3 to ptr), ptr inttoptr (i64 1 to ptr)
  %16 = getelementptr inbounds nuw i8, ptr %12, i64 4
  store i32 1, ptr %12, align 4, !tbaa !4
  store i32 131096, ptr %16, align 4
  %17 = getelementptr inbounds nuw i8, ptr %12, i64 8
  store ptr %15, ptr %17, align 8, !tbaa !10
  %18 = getelementptr inbounds nuw i8, ptr %12, i64 16
  store ptr %10, ptr %18, align 8, !tbaa !10
  ret ptr %12
}